; Function Attrs: nounwind uwtable
define hidden void @zif_dom_import_simplexml(ptr nocapture noundef readonly %0, ptr noundef %1) #1 {
  %3 = alloca ptr, align 8
  %4 = getelementptr inbounds i8, ptr %0, i64 44
  %5 = load i32, ptr %4, align 4
  %6 = call i32 (i32, ptr, ...) @zend_parse_parameters(i32 noundef %5, ptr noundef nonnull @.str.1, ptr noundef nonnull %3) #16
  %7 = icmp eq i32 %6, -1
  br i1 %7, label %8, label %11

8:                                                ; preds = %2
  %9 = load ptr, ptr getelementptr inbounds (%struct._zend_executor_globals, ptr @executor_globals, i64 0, i32 50), align 8
  %10 = icmp ne ptr %9, null
  call void @llvm.assume(i1 %10)
  br label %31

11:                                               ; preds = %2
  %12 = load ptr, ptr %3, align 8
  %13 = load ptr, ptr %12, align 8
  %14 = getelementptr inbounds i8, ptr %13, i64 24
  %15 = load ptr, ptr %14, align 8
  %16 = load i32, ptr %15, align 8
  %17 = sext i32 %16 to i64
  %18 = sub nsw i64 0, %17
  %19 = getelementptr inbounds i8, ptr %13, i64 %18
  %20 = call ptr @php_libxml_import_node(ptr noundef nonnull %12) #16
  %21 = icmp ne ptr %20, null
  %22 = icmp ne ptr %13, null
  %or.cond = and i1 %22, %21
  br i1 %or.cond, label %23, label %28

23:                                               ; preds = %11
  %24 = getelementptr inbounds i8, ptr %20, i64 8
  %25 = load i32, ptr %24, align 8
  %.off = add i32 %25, -1
  %switch = icmp ult i32 %.off, 2
  br i1 %switch, label %26, label %28

26:                                               ; preds = %23
  %27 = call zeroext i1 @php_dom_create_object(ptr noundef nonnull %20, ptr noundef %1, ptr noundef nonnull %19)
  br label %31

28:                                               ; preds = %23, %11
  call void (i32, ptr, ...) @zend_argument_value_error(i32 noundef 1, ptr noundef nonnull @.str.2) #16
  %29 = load ptr, ptr getelementptr inbounds (%struct._zend_executor_globals, ptr @executor_globals, i64 0, i32 50), align 8
  %30 = icmp ne ptr %29, null
  call void @llvm.assume(i1 %30)
  br label %31

31:                                               ; preds = %28, %26, %8
  ret void
}